target datalayout = "e-m:e-p270:32:32-p271:32:32-p272:64:64-i64:64-i128:128-f80:128-n8:16:32:64-S128"
target triple = "x86_64-pc-linux-gnu"

%class.AudioRouting = type { i8, i32 }
%class.AudioRoutingFilter = type <{ %class.QIODevice, ptr, i8, [3 x i8], %class.AudioRouting, [4 x i8] }>
%class.QIODevice = type { %class.QObject }
%class.QObject = type { ptr, %class.QScopedPointer }
%class.QScopedPointer = type { ptr }

; Function Attrs: alwaysinline mustprogress nounwind
define internal ptr @memcpy.inline(ptr noalias %0, ptr noalias %1, i64 %2) #5 {
  %4 = alloca ptr, align 8
  %5 = alloca ptr, align 8
  %6 = alloca i64, align 8
  store ptr %0, ptr %4, align 8
  store ptr %1, ptr %5, align 8
  store i64 %2, ptr %6, align 8
  %7 = load ptr, ptr %4, align 8
  %8 = load ptr, ptr %5, align 8
  %9 = load i64, ptr %6, align 8
  %10 = load ptr, ptr %4, align 8
  %11 = call i64 @llvm.objectsize.i64.p0(ptr %10, i1 false, i1 true, i1 true)
  %12 = call ptr @__memcpy_chk(ptr noundef %7, ptr noundef %8, i64 noundef %9, i64 noundef %11) #9
  ret ptr %12
}

; Function Attrs: mustprogress nounwind null_pointer_is_valid sspstrong uwtable
define linkonce_odr noundef i32 @_ZN12AudioRouting10getChannelEv(ptr noundef align 4 dereferenceable_or_null(8) %0) #4 comdat align 2 {
  %2 = alloca ptr, align 8
  store ptr %0, ptr %2, align 8
  %3 = load ptr, ptr %2, align 8
  %4 = getelementptr inbounds nuw %class.AudioRouting, ptr %3, i32 0, i32 1
  %5 = load i32, ptr %4, align 4
  ret i32 %5
}

; Function Attrs: mustprogress null_pointer_is_valid sspstrong uwtable
define noundef i64 @_ZN18AudioRoutingFilter8readDataEPcx(ptr noundef align 8 dereferenceable_or_null(36) %0, ptr noundef %1, i64 noundef %2) unnamed_addr #0 align 2 {
  %4 = alloca i64, align 8
  %5 = alloca ptr, align 8
  %6 = alloca ptr, align 8
  %7 = alloca i64, align 8
  %8 = alloca i64, align 8
  %9 = alloca i64, align 8
  %10 = alloca i32, align 4
  %11 = alloca i64, align 8
  %12 = alloca i64, align 8
  store ptr %0, ptr %5, align 8
  store ptr %1, ptr %6, align 8
  store i64 %2, ptr %7, align 8
  %13 = load ptr, ptr %5, align 8
  %14 = getelementptr inbounds nuw %class.AudioRoutingFilter, ptr %13, i32 0, i32 2
  %15 = load i8, ptr %14, align 8, !range !6, !noundef !7
  %16 = trunc i8 %15 to i1
  br i1 %16, label %23, label %17

17:                                               ; preds = %3
  %18 = getelementptr inbounds nuw %class.AudioRoutingFilter, ptr %13, i32 0, i32 1
  %19 = load ptr, ptr %18, align 8
  %20 = load ptr, ptr %6, align 8
  %21 = load i64, ptr %7, align 8
  %22 = call noundef i64 @_ZN9QIODevice4readEPcx(ptr noundef align 8 dereferenceable_or_null(16) %19, ptr noundef %20, i64 noundef %21)
  store i64 %22, ptr %4, align 8
  br label %120

23:                                               ; preds = %3
  call void @llvm.lifetime.start.p0(i64 8, ptr %8) #9
  store i64 0, ptr %8, align 8
  call void @llvm.lifetime.start.p0(i64 8, ptr %9) #9
  %24 = getelementptr inbounds nuw %class.AudioRoutingFilter, ptr %13, i32 0, i32 1
  %25 = load ptr, ptr %24, align 8
  %26 = load ptr, ptr %6, align 8
  %27 = load i64, ptr %7, align 8
  %28 = udiv i64 %27, 2
  %29 = call noundef i64 @_ZN9QIODevice4readEPcx(ptr noundef align 8 dereferenceable_or_null(16) %25, ptr noundef %26, i64 noundef %28)
  store i64 %29, ptr %9, align 8
  %30 = load i64, ptr %9, align 8
  %31 = icmp slt i64 %30, 1
  br i1 %31, label %32, label %34

32:                                               ; preds = %23
  %33 = load i64, ptr %9, align 8
  store i64 %33, ptr %4, align 8
  store i32 1, ptr %10, align 4
  br label %119

34:                                               ; preds = %23
  call void @llvm.lifetime.start.p0(i64 8, ptr %11) #9
  %35 = load i64, ptr %9, align 8
  %36 = udiv i64 %35, 2
  %37 = sub i64 %36, 1
  store i64 %37, ptr %11, align 8
  br label %38

38:                                               ; preds = %113, %34
  %39 = load i64, ptr %11, align 8
  %40 = icmp sgt i64 %39, 0
  br i1 %40, label %42, label %41

41:                                               ; preds = %38
  store i32 2, ptr %10, align 4
  call void @llvm.lifetime.end.p0(i64 8, ptr %11) #9
  br label %116

42:                                               ; preds = %38
  call void @llvm.lifetime.start.p0(i64 8, ptr %12) #9
  %43 = load i64, ptr %11, align 8
  %44 = mul i64 2, %43
  store i64 %44, ptr %12, align 8
  %45 = getelementptr inbounds nuw %class.AudioRoutingFilter, ptr %13, i32 0, i32 4
  %46 = call noundef i32 @_ZN12AudioRouting10getChannelEv(ptr noundef align 4 dereferenceable_or_null(8) %45)
  %47 = icmp eq i32 %46, 2
  br i1 %47, label %48, label %63

48:                                               ; preds = %42
  %49 = load ptr, ptr %6, align 8
  %50 = load i64, ptr %12, align 8
  %51 = mul i64 %50, 2
  %52 = getelementptr i8, ptr %49, i64 %51
  %53 = load ptr, ptr %6, align 8
  %54 = load i64, ptr %12, align 8
  %55 = getelementptr i8, ptr %53, i64 %54
  %56 = call ptr @memcpy.inline(ptr noundef %52, ptr noundef %55, i64 noundef 2) #9
  %57 = load ptr, ptr %6, align 8
  %58 = load i64, ptr %12, align 8
  %59 = mul i64 %58, 2
  %60 = add i64 %59, 2
  %61 = getelementptr i8, ptr %57, i64 %60
  %62 = call ptr @memcpy.inline(ptr noundef %61, ptr noundef %8, i64 noundef 2) #9
  br label %112

63:                                               ; preds = %42
  %64 = getelementptr inbounds nuw %class.AudioRoutingFilter, ptr %13, i32 0, i32 4
  %65 = call noundef i32 @_ZN12AudioRouting10getChannelEv(ptr noundef align 4 dereferenceable_or_null(8) %64)
  %66 = icmp eq i32 %65, 3
  br i1 %66, label %67, label %82

67:                                               ; preds = %63
  %68 = load ptr, ptr %6, align 8
  %69 = load i64, ptr %12, align 8
  %70 = mul i64 %69, 2
  %71 = getelementptr i8, ptr %68, i64 %70
  %72 = call ptr @memcpy.inline(ptr noundef %71, ptr noundef %8, i64 noundef 2) #9
  %73 = load ptr, ptr %6, align 8
  %74 = load i64, ptr %12, align 8
  %75 = mul i64 %74, 2
  %76 = add i64 %75, 2
  %77 = getelementptr i8, ptr %73, i64 %76
  %78 = load ptr, ptr %6, align 8
  %79 = load i64, ptr %12, align 8
  %80 = getelementptr i8, ptr %78, i64 %79
  %81 = call ptr @memcpy.inline(ptr noundef %77, ptr noundef %80, i64 noundef 2) #9
  br label %111

82:                                               ; preds = %63
  %83 = getelementptr inbounds nuw %class.AudioRoutingFilter, ptr %13, i32 0, i32 4
  %84 = call noundef i32 @_ZN12AudioRouting10getChannelEv(ptr noundef align 4 dereferenceable_or_null(8) %83)
  %85 = icmp eq i32 %84, 4
  br i1 %85, label %86, label %104

86:                                               ; preds = %82
  %87 = load ptr, ptr %6, align 8
  %88 = load i64, ptr %12, align 8
  %89 = mul i64 %88, 2
  %90 = getelementptr i8, ptr %87, i64 %89
  %91 = load ptr, ptr %6, align 8
  %92 = load i64, ptr %12, align 8
  %93 = getelementptr i8, ptr %91, i64 %92
  %94 = call ptr @memcpy.inline(ptr noundef %90, ptr noundef %93, i64 noundef 2) #9
  %95 = load ptr, ptr %6, align 8
  %96 = load i64, ptr %12, align 8
  %97 = mul i64 %96, 2
  %98 = add i64 %97, 2
  %99 = getelementptr i8, ptr %95, i64 %98
  %100 = load ptr, ptr %6, align 8
  %101 = load i64, ptr %12, align 8
  %102 = getelementptr i8, ptr %100, i64 %101
  %103 = call ptr @memcpy.inline(ptr noundef %99, ptr noundef %102, i64 noundef 2) #9
  br label %110

104:                                              ; preds = %82
  %105 = load ptr, ptr %6, align 8
  %106 = load i64, ptr %12, align 8
  %107 = mul i64 %106, 2
  %108 = getelementptr i8, ptr %105, i64 %107
  %109 = call ptr @memcpy.inline(ptr noundef %108, ptr noundef %8, i64 noundef 4) #9
  br label %110

110:                                              ; preds = %104, %86
  br label %111

111:                                              ; preds = %110, %67
  br label %112

112:                                              ; preds = %111, %48
  call void @llvm.lifetime.end.p0(i64 8, ptr %12) #9
  br label %113

113:                                              ; preds = %112
  %114 = load i64, ptr %11, align 8
  %115 = add i64 %114, -1
  store i64 %115, ptr %11, align 8
  br label %38, !llvm.loop !8

116:                                              ; preds = %41
  %117 = load i64, ptr %9, align 8
  %118 = mul i64 %117, 2
  store i64 %118, ptr %4, align 8
  store i32 1, ptr %10, align 4
  br label %119

119:                                              ; preds = %116, %32
  call void @llvm.lifetime.end.p0(i64 8, ptr %9) #9
  call void @llvm.lifetime.end.p0(i64 8, ptr %8) #9
  br label %120

120:                                              ; preds = %119, %17
  %121 = load i64, ptr %4, align 8
  ret i64 %121
}